; Function Attrs: mustprogress uwtable
define hidden void @_ZN4lean14name_generatorC2Ev(ptr noundef nonnull writeonly align 8 captures(none) dereferenceable(12) initializes((0, 12)) %0) unnamed_addr #0 align 2 {
  %2 = load ptr, ptr @_ZN4leanL12g_tmp_prefixE, align 8, !tbaa !15
  %3 = load ptr, ptr %2, align 8, !tbaa !3
  store ptr %3, ptr %0, align 8, !tbaa !3
  %4 = ptrtoint ptr %3 to i64
  %5 = and i64 %4, 1
  %.not.i.i.i.i = icmp eq i64 %5, 0
  br i1 %.not.i.i.i.i, label %6, label %_ZN4lean14name_generatorC2ERKNS_4nameE.exit

6:                                                ; preds = %1
  %.val.i.i.i.i.i = load i32, ptr %3, align 4, !tbaa !8
  %7 = icmp sgt i32 %.val.i.i.i.i.i, 0
  br i1 %7, label %8, label %10, !prof !11

8:                                                ; preds = %6
  %9 = add nuw nsw i32 %.val.i.i.i.i.i, 1
  store i32 %9, ptr %3, align 4, !tbaa !8
  br label %_ZN4lean14name_generatorC2ERKNS_4nameE.exit

10:                                               ; preds = %6
  %.not.i.i.i.i.i = icmp eq i32 %.val.i.i.i.i.i, 0
  br i1 %.not.i.i.i.i.i, label %_ZN4lean14name_generatorC2ERKNS_4nameE.exit, label %11

11:                                               ; preds = %10
  tail call void @lean_inc_ref_cold(ptr noundef nonnull %3)
  br label %_ZN4lean14name_generatorC2ERKNS_4nameE.exit

_ZN4lean14name_generatorC2ERKNS_4nameE.exit:      ; preds = %1, %8, %10, %11
  %12 = getelementptr inbounds nuw i8, ptr %0, i64 8
  store i32 0, ptr %12, align 8, !tbaa !12
  ret void
}